target datalayout = "e-m:e-p270:32:32-p271:32:32-p272:64:64-i64:64-i128:128-f80:128-n8:16:32:64-S128"
target triple = "x86_64-pc-linux-gnu"

; Function Attrs: nounwind uwtable
define internal void @help_get_legacy_alg_type_from_keymgmt(ptr noundef %0, ptr noundef %1) #0 {
  %3 = alloca ptr, align 8
  %4 = alloca ptr, align 8
  %5 = alloca ptr, align 8
  store ptr %0, ptr %3, align 8, !tbaa !8
  store ptr %1, ptr %4, align 8, !tbaa !58
  call void @llvm.lifetime.start.p0(i64 8, ptr %5) #4
  %6 = load ptr, ptr %4, align 8, !tbaa !58
  store ptr %6, ptr %5, align 8, !tbaa !61
  %7 = load ptr, ptr %5, align 8, !tbaa !61
  %8 = load i32, ptr %7, align 4, !tbaa !10
  %9 = icmp eq i32 %8, 0
  br i1 %9, label %10, label %14

10:                                               ; preds = %2
  %11 = load ptr, ptr %3, align 8, !tbaa !8
  %12 = call i32 @evp_pkey_name2type(ptr noundef %11)
  %13 = load ptr, ptr %5, align 8, !tbaa !61
  store i32 %12, ptr %13, align 4, !tbaa !10
  br label %14

14:                                               ; preds = %10, %2
  call void @llvm.lifetime.end.p0(i64 8, ptr %5) #4
  ret void
}