; Function Attrs: nounwind uwtable
define internal void @help_get_legacy_alg_type_from_keymgmt(ptr noundef %0, ptr noundef captures(none) %1) #0 {
  %3 = load i32, ptr %1, align 4, !tbaa !51
  %4 = icmp eq i32 %3, 0
  br i1 %4, label %5, label %7

5:                                                ; preds = %2
  %6 = tail call i32 @evp_pkey_name2type(ptr noundef %0) #5
  store i32 %6, ptr %1, align 4, !tbaa !51
  br label %7

7:                                                ; preds = %5, %2
  ret void
}